; Function Attrs: mustprogress uwtable
define hidden void @_ZN2dt6solver16apply_sort_cnstrEPN3euf5enodeEP4sort(ptr noundef nonnull align 8 dereferenceable(472) %0, ptr noundef %1, ptr readnone captures(none) %2) unnamed_addr #3 align 2 {
  %4 = getelementptr inbounds nuw i8, ptr %0, i64 104
  %5 = load i32, ptr %4, align 8, !tbaa !533
  %.not1.i = icmp eq i32 %5, 0
  br i1 %.not1.i, label %_ZN3euf13th_euf_solver10force_pushEv.exit, label %.lr.ph.i

.lr.ph.i:                                         ; preds = %3, %.lr.ph.i
  %6 = load ptr, ptr %0, align 8, !tbaa !388
  %7 = getelementptr inbounds nuw i8, ptr %6, i64 512
  %8 = load ptr, ptr %7, align 8
  tail call void %8(ptr noundef nonnull align 8 dereferenceable(108) %0)
  %9 = load i32, ptr %4, align 8, !tbaa !533
  %10 = add i32 %9, -1
  store i32 %10, ptr %4, align 8, !tbaa !533
  %.not.i = icmp eq i32 %10, 0
  br i1 %.not.i, label %_ZN3euf13th_euf_solver10force_pushEv.exit, label %.lr.ph.i, !llvm.loop !534

_ZN3euf13th_euf_solver10force_pushEv.exit:        ; preds = %.lr.ph.i, %3
  %11 = tail call noundef zeroext i1 @_ZNK3euf13th_euf_solver18is_attached_to_varEPNS_5enodeE(ptr noundef nonnull align 8 dereferenceable(108) %0, ptr noundef %1)
  br i1 %11, label %17, label %12

12:                                               ; preds = %_ZN3euf13th_euf_solver10force_pushEv.exit
  %13 = load ptr, ptr %0, align 8, !tbaa !388
  %14 = getelementptr inbounds nuw i8, ptr %13, i64 528
  %15 = load ptr, ptr %14, align 8
  %16 = tail call noundef i32 %15(ptr noundef nonnull align 8 dereferenceable(472) %0, ptr noundef %1)
  br label %17

17:                                               ; preds = %12, %_ZN3euf13th_euf_solver10force_pushEv.exit
  ret void
}